target datalayout = "e-m:e-p270:32:32-p271:32:32-p272:64:64-i64:64-i128:128-f80:128-n8:16:32:64-S128"
target triple = "x86_64-pc-linux-gnu"

%struct.rb_vm_struct = type { i64, %struct.anon.5, ptr, i64, %struct.ccan_list_head, i32, i8, i64, ptr, [5 x i64], i64, i64, i64, i64, i64, i64, i64, i64, i64, ptr, ptr, ptr, %struct.anon.9, ptr, i32, %struct.ccan_list_head, %union.pthread_mutex_t, i64, i64, i64, i64, i32, %struct.anon.10, ptr, ptr, ptr, ptr, ptr, ptr, ptr, ptr, i64, [1023 x ptr], %struct.anon.11 }
%struct.anon.5 = type { %struct.ccan_list_head, i32, i32, ptr, ptr, %struct.anon.6, %struct.anon.8 }
%struct.anon.6 = type { %union.pthread_mutex_t, ptr, i32, %union.pthread_cond_t, i8 }
%union.pthread_cond_t = type { %struct.__pthread_cond_s }
%struct.__pthread_cond_s = type { %union.__atomic_wide_counter, %union.__atomic_wide_counter, [2 x i32], [2 x i32], i32, i32, [2 x i32] }
%union.__atomic_wide_counter = type { i64 }
%struct.anon.8 = type { %union.pthread_mutex_t, ptr, i8, %union.pthread_cond_t, i32, i32, i32, i32, %struct.ccan_list_head, i32, %struct.ccan_list_head, %struct.ccan_list_head, %struct.ccan_list_head, i8, %union.pthread_cond_t, %union.pthread_cond_t, i8, i32, i32 }
%struct.anon.9 = type { [65 x i64] }
%struct.ccan_list_head = type { %struct.ccan_list_node }
%struct.ccan_list_node = type { ptr, ptr }
%union.pthread_mutex_t = type { %struct.__pthread_mutex_s }
%struct.__pthread_mutex_s = type { i32, i32, i32, i32, i32, i16, i16, %struct.__pthread_internal_list }
%struct.__pthread_internal_list = type { ptr, ptr }
%struct.anon.10 = type { ptr, ptr }
%struct.anon.11 = type { i64, i64, i64, i64 }

@ruby_dln_libmap = internal global i64 0, align 8
@Init_load.var_load_path = internal constant [3 x i8] c"$:\00", align 1
@.str.6 = private unnamed_addr constant [4 x i8] c"$-I\00", align 1
@.str.7 = private unnamed_addr constant [11 x i8] c"$LOAD_PATH\00", align 1
@.str.8 = private unnamed_addr constant [21 x i8] c"resolve_feature_path\00", align 1
@.str.9 = private unnamed_addr constant [3 x i8] c"$\22\00", align 1
@.str.10 = private unnamed_addr constant [17 x i8] c"$LOADED_FEATURES\00", align 1
@.str.11 = private unnamed_addr constant [5 x i8] c"load\00", align 1
@.str.12 = private unnamed_addr constant [8 x i8] c"require\00", align 1
@.str.13 = private unnamed_addr constant [17 x i8] c"require_relative\00", align 1
@rb_cModule = external global i64, align 8
@.str.14 = private unnamed_addr constant [9 x i8] c"autoload\00", align 1
@.str.15 = private unnamed_addr constant [10 x i8] c"autoload?\00", align 1
@ruby_current_vm_ptr = external global ptr, align 8

; Function Attrs: inlinehint nounwind sspstrong willreturn memory(read) uwtable
define internal i64 @rb_intern_const(ptr noundef nonnull %0) #12 {
  %2 = alloca ptr, align 8
  %3 = alloca i64, align 8
  store ptr %0, ptr %2, align 8, !tbaa !43
  call void @llvm.lifetime.start.p0(i64 8, ptr %3) #8
  %4 = load ptr, ptr %2, align 8, !tbaa !43
  %5 = call i64 @strlen(ptr noundef %4) #29
  store i64 %5, ptr %3, align 8, !tbaa !12
  %6 = load ptr, ptr %2, align 8, !tbaa !43
  %7 = load i64, ptr %3, align 8, !tbaa !12
  %8 = call i64 @rb_intern2(ptr noundef %6, i64 noundef %7)
  call void @llvm.lifetime.end.p0(i64 8, ptr %3) #8
  ret i64 %8
}

; Function Attrs: inlinehint nounwind sspstrong uwtable
define internal ptr @rb_current_vm() #1 {
  %1 = load ptr, ptr @ruby_current_vm_ptr, align 8, !tbaa !7
  ret ptr %1
}

; Function Attrs: nounwind sspstrong uwtable
define hidden void @Init_load() #0 {
  %1 = alloca ptr, align 8
  %2 = alloca i64, align 8
  call void @llvm.lifetime.start.p0(i64 8, ptr %1) #8
  %3 = call ptr @rb_current_vm()
  store ptr %3, ptr %1, align 8, !tbaa !7
  call void @llvm.lifetime.start.p0(i64 8, ptr %2) #8
  %4 = call i64 @rb_intern2(ptr noundef @Init_load.var_load_path, i64 noundef 2)
  store i64 %4, ptr %2, align 8, !tbaa !12
  %5 = load ptr, ptr %1, align 8, !tbaa !7
  call void @rb_define_hooked_variable(ptr noundef @Init_load.var_load_path, ptr noundef %5, ptr noundef @load_path_getter, ptr noundef @rb_gvar_readonly_setter)
  %6 = call i64 @rb_intern_const(ptr noundef @.str.6) #29
  %7 = load i64, ptr %2, align 8, !tbaa !12
  call void @rb_alias_variable(i64 noundef %6, i64 noundef %7)
  %8 = call i64 @rb_intern_const(ptr noundef @.str.7) #29
  %9 = load i64, ptr %2, align 8, !tbaa !12
  call void @rb_alias_variable(i64 noundef %8, i64 noundef %9)
  %10 = call i64 @rb_ary_new()
  %11 = load ptr, ptr %1, align 8, !tbaa !7
  %12 = getelementptr inbounds nuw %struct.rb_vm_struct, ptr %11, i32 0, i32 11
  store i64 %10, ptr %12, align 8, !tbaa !38
  %13 = call i64 @rb_ary_hidden_new(i64 noundef 0)
  %14 = load ptr, ptr %1, align 8, !tbaa !7
  %15 = getelementptr inbounds nuw %struct.rb_vm_struct, ptr %14, i32 0, i32 14
  store i64 %13, ptr %15, align 8, !tbaa !41
  %16 = call i64 @rb_ary_hidden_new(i64 noundef 0)
  %17 = load ptr, ptr %1, align 8, !tbaa !7
  %18 = getelementptr inbounds nuw %struct.rb_vm_struct, ptr %17, i32 0, i32 12
  store i64 %16, ptr %18, align 8, !tbaa !14
  %19 = load ptr, ptr %1, align 8, !tbaa !7
  %20 = getelementptr inbounds nuw %struct.rb_vm_struct, ptr %19, i32 0, i32 13
  store i64 0, ptr %20, align 8, !tbaa !40
  %21 = load ptr, ptr %1, align 8, !tbaa !7
  %22 = getelementptr inbounds nuw %struct.rb_vm_struct, ptr %21, i32 0, i32 11
  %23 = load i64, ptr %22, align 8, !tbaa !38
  call void @rb_define_singleton_method(i64 noundef %23, ptr noundef @.str.8, ptr noundef @rb_resolve_feature_path, i32 noundef 1)
  call void @rb_define_virtual_variable(ptr noundef @.str.9, ptr noundef @get_LOADED_FEATURES, ptr noundef null)
  call void @rb_define_virtual_variable(ptr noundef @.str.10, ptr noundef @get_LOADED_FEATURES, ptr noundef null)
  %24 = call i64 @rb_ary_new()
  %25 = load ptr, ptr %1, align 8, !tbaa !7
  %26 = getelementptr inbounds nuw %struct.rb_vm_struct, ptr %25, i32 0, i32 15
  store i64 %24, ptr %26, align 8, !tbaa !128
  %27 = call i64 @rb_ary_hidden_new(i64 noundef 0)
  %28 = load ptr, ptr %1, align 8, !tbaa !7
  %29 = getelementptr inbounds nuw %struct.rb_vm_struct, ptr %28, i32 0, i32 16
  store i64 %27, ptr %29, align 8, !tbaa !51
  %30 = call ptr @rb_st_init_numtable()
  %31 = load ptr, ptr %1, align 8, !tbaa !7
  %32 = getelementptr inbounds nuw %struct.rb_vm_struct, ptr %31, i32 0, i32 19
  store ptr %30, ptr %32, align 8, !tbaa !42
  %33 = call i64 @rb_hash_new()
  %34 = load ptr, ptr %1, align 8, !tbaa !7
  %35 = getelementptr inbounds nuw %struct.rb_vm_struct, ptr %34, i32 0, i32 17
  store i64 %33, ptr %35, align 8, !tbaa !129
  %36 = load ptr, ptr %1, align 8, !tbaa !7
  %37 = getelementptr inbounds nuw %struct.rb_vm_struct, ptr %36, i32 0, i32 17
  %38 = load i64, ptr %37, align 8, !tbaa !129
  %39 = call i64 @rb_obj_hide(i64 noundef %38)
  %40 = call i64 @rb_hash_new()
  %41 = load ptr, ptr %1, align 8, !tbaa !7
  %42 = getelementptr inbounds nuw %struct.rb_vm_struct, ptr %41, i32 0, i32 18
  store i64 %40, ptr %42, align 8, !tbaa !130
  %43 = load ptr, ptr %1, align 8, !tbaa !7
  %44 = getelementptr inbounds nuw %struct.rb_vm_struct, ptr %43, i32 0, i32 18
  %45 = load i64, ptr %44, align 8, !tbaa !130
  %46 = call i64 @rb_obj_hide(i64 noundef %45)
  call void @rb_define_global_function(ptr noundef @.str.11, ptr noundef @rb_f_load, i32 noundef -1)
  call void @rb_define_global_function(ptr noundef @.str.12, ptr noundef @rb_f_require, i32 noundef 1)
  call void @rb_define_global_function(ptr noundef @.str.13, ptr noundef @rb_f_require_relative, i32 noundef 1)
  %47 = load i64, ptr @rb_cModule, align 8, !tbaa !12
  call void @rb_define_method(i64 noundef %47, ptr noundef @.str.14, ptr noundef @rb_mod_autoload, i32 noundef 2)
  %48 = load i64, ptr @rb_cModule, align 8, !tbaa !12
  call void @rb_define_method(i64 noundef %48, ptr noundef @.str.15, ptr noundef @rb_mod_autoload_p, i32 noundef -1)
  call void @rb_define_global_function(ptr noundef @.str.14, ptr noundef @rb_f_autoload, i32 noundef 2)
  call void @rb_define_global_function(ptr noundef @.str.15, ptr noundef @rb_f_autoload_p, i32 noundef -1)
  %49 = call i64 @rb_hash_new_with_size(i64 noundef 0)
  store i64 %49, ptr @ruby_dln_libmap, align 8, !tbaa !12
  %50 = load i64, ptr @ruby_dln_libmap, align 8, !tbaa !12
  call void @rb_vm_register_global_object(i64 noundef %50)
  call void @llvm.lifetime.end.p0(i64 8, ptr %2) #8
  call void @llvm.lifetime.end.p0(i64 8, ptr %1) #8
  ret void
}