; Function Attrs: nounwind sspstrong uwtable
define hidden void @Init_load() local_unnamed_addr #0 {
  %1 = load ptr, ptr @ruby_current_vm_ptr, align 8, !tbaa !7
  %2 = tail call i64 @rb_intern2(ptr noundef nonnull @Init_load.var_load_path, i64 noundef 2) #7
  tail call void @rb_define_hooked_variable(ptr noundef nonnull @Init_load.var_load_path, ptr noundef %1, ptr noundef nonnull @load_path_getter, ptr noundef nonnull @rb_gvar_readonly_setter) #7
  %3 = tail call i64 @rb_intern2(ptr noundef nonnull @.str.6, i64 noundef 3) #7
  tail call void @rb_alias_variable(i64 noundef %3, i64 noundef %2) #7
  %4 = tail call i64 @rb_intern2(ptr noundef nonnull @.str.7, i64 noundef 10) #7
  tail call void @rb_alias_variable(i64 noundef %4, i64 noundef %2) #7
  %5 = tail call i64 @rb_ary_new() #7
  %6 = getelementptr inbounds nuw i8, ptr %1, i64 576
  store i64 %5, ptr %6, align 8, !tbaa !37
  %7 = tail call i64 @rb_ary_hidden_new(i64 noundef 0) #7
  %8 = getelementptr inbounds nuw i8, ptr %1, i64 600
  store i64 %7, ptr %8, align 8, !tbaa !40
  %9 = tail call i64 @rb_ary_hidden_new(i64 noundef 0) #7
  %10 = getelementptr inbounds nuw i8, ptr %1, i64 584
  store i64 %9, ptr %10, align 8, !tbaa !12
  %11 = getelementptr inbounds nuw i8, ptr %1, i64 592
  store i64 0, ptr %11, align 8, !tbaa !39
  %12 = load i64, ptr %6, align 8, !tbaa !37
  tail call void @rb_define_singleton_method(i64 noundef %12, ptr noundef nonnull @.str.8, ptr noundef nonnull @rb_resolve_feature_path, i32 noundef 1) #7
  tail call void @rb_define_virtual_variable(ptr noundef nonnull @.str.9, ptr noundef nonnull @get_LOADED_FEATURES, ptr noundef null) #7
  tail call void @rb_define_virtual_variable(ptr noundef nonnull @.str.10, ptr noundef nonnull @get_LOADED_FEATURES, ptr noundef null) #7
  %13 = tail call i64 @rb_ary_new() #7
  %14 = getelementptr inbounds nuw i8, ptr %1, i64 608
  store i64 %13, ptr %14, align 8, !tbaa !52
  %15 = tail call i64 @rb_ary_hidden_new(i64 noundef 0) #7
  %16 = getelementptr inbounds nuw i8, ptr %1, i64 616
  store i64 %15, ptr %16, align 8, !tbaa !53
  %17 = tail call ptr @rb_st_init_numtable() #7
  %18 = getelementptr inbounds nuw i8, ptr %1, i64 640
  store ptr %17, ptr %18, align 8, !tbaa !41
  %19 = tail call i64 @rb_hash_new() #7
  %20 = getelementptr inbounds nuw i8, ptr %1, i64 624
  store i64 %19, ptr %20, align 8, !tbaa !126
  %21 = tail call i64 @rb_obj_hide(i64 noundef %19) #7
  %22 = tail call i64 @rb_hash_new() #7
  %23 = getelementptr inbounds nuw i8, ptr %1, i64 632
  store i64 %22, ptr %23, align 8, !tbaa !127
  %24 = tail call i64 @rb_obj_hide(i64 noundef %22) #7
  tail call void @rb_define_global_function(ptr noundef nonnull @.str.11, ptr noundef nonnull @rb_f_load, i32 noundef -1) #7
  tail call void @rb_define_global_function(ptr noundef nonnull @.str.12, ptr noundef nonnull @rb_f_require, i32 noundef 1) #7
  tail call void @rb_define_global_function(ptr noundef nonnull @.str.13, ptr noundef nonnull @rb_f_require_relative, i32 noundef 1) #7
  %25 = load i64, ptr @rb_cModule, align 8, !tbaa !42
  tail call void @rb_define_method(i64 noundef %25, ptr noundef nonnull @.str.14, ptr noundef nonnull @rb_mod_autoload, i32 noundef 2) #7
  %26 = load i64, ptr @rb_cModule, align 8, !tbaa !42
  tail call void @rb_define_method(i64 noundef %26, ptr noundef nonnull @.str.15, ptr noundef nonnull @rb_mod_autoload_p, i32 noundef -1) #7
  tail call void @rb_define_global_function(ptr noundef nonnull @.str.14, ptr noundef nonnull @rb_f_autoload, i32 noundef 2) #7
  tail call void @rb_define_global_function(ptr noundef nonnull @.str.15, ptr noundef nonnull @rb_f_autoload_p, i32 noundef -1) #7
  %27 = tail call i64 @rb_hash_new_with_size(i64 noundef 0) #7
  store i64 %27, ptr @ruby_dln_libmap, align 8, !tbaa !42
  tail call void @rb_vm_register_global_object(i64 noundef %27) #7
  ret void
}